; Function Attrs: mustprogress uwtable
define dso_local void @_ZN4Luau7CodeGen3X6418AssemblyBuilderX648placeJccEPKcRNS0_5LabelEh(ptr noundef nonnull align 8 dereferenceable(252) %0, ptr noundef %1, ptr noundef nonnull align 4 captures(none) dereferenceable(8) %2, i8 noundef zeroext %3) local_unnamed_addr #0 align 2 {
  %5 = getelementptr inbounds nuw i8, ptr %0, i64 232
  %6 = load ptr, ptr %5, align 8, !tbaa !51
  %7 = getelementptr inbounds nuw i8, ptr %6, i64 1
  store ptr %7, ptr %5, align 8, !tbaa !51
  store i8 15, ptr %6, align 1, !tbaa !13
  %8 = xor i8 %3, -128
  %9 = load ptr, ptr %5, align 8, !tbaa !51
  %10 = getelementptr inbounds nuw i8, ptr %9, i64 1
  store ptr %10, ptr %5, align 8, !tbaa !51
  store i8 %8, ptr %9, align 1, !tbaa !13
  tail call void @_ZN4Luau7CodeGen3X6418AssemblyBuilderX6410placeLabelERNS0_5LabelE(ptr noundef nonnull align 8 dereferenceable(252) %0, ptr noundef nonnull align 4 dereferenceable(8) %2)
  %11 = getelementptr inbounds nuw i8, ptr %0, i64 80
  %12 = load i8, ptr %11, align 8, !tbaa !14, !range !61, !noundef !62
  %13 = trunc nuw i8 %12 to i1
  br i1 %13, label %14, label %15

14:                                               ; preds = %4
  %.sroa.0.0.copyload = load i64, ptr %2, align 4
  tail call void @_ZN4Luau7CodeGen3X6418AssemblyBuilderX643logEPKcNS0_5LabelE(ptr noundef nonnull align 8 dereferenceable(252) %0, ptr noundef %1, i64 %.sroa.0.0.copyload)
  br label %15

15:                                               ; preds = %14, %4
  %16 = getelementptr inbounds nuw i8, ptr %0, i64 248
  %17 = load i32, ptr %16, align 8, !tbaa !63
  %18 = add i32 %17, 1
  store i32 %18, ptr %16, align 8, !tbaa !63
  %19 = getelementptr inbounds nuw i8, ptr %0, i64 240
  %20 = load ptr, ptr %19, align 8, !tbaa !52
  %21 = load ptr, ptr %5, align 8, !tbaa !51
  %22 = ptrtoint ptr %20 to i64
  %23 = ptrtoint ptr %21 to i64
  %24 = sub i64 %22, %23
  %25 = and i64 %24, 4294967280
  %26 = icmp eq i64 %25, 0
  br i1 %26, label %27, label %_ZN4Luau7CodeGen3X6418AssemblyBuilderX646commitEv.exit

27:                                               ; preds = %15
  tail call void @_ZN4Luau7CodeGen3X6418AssemblyBuilderX646extendEv(ptr noundef nonnull align 8 dereferenceable(252) %0)
  br label %_ZN4Luau7CodeGen3X6418AssemblyBuilderX646commitEv.exit

_ZN4Luau7CodeGen3X6418AssemblyBuilderX646commitEv.exit: ; preds = %15, %27
  ret void
}